target datalayout = "e-m:e-p270:32:32-p271:32:32-p272:64:64-i64:64-i128:128-f80:128-n8:16:32:64-S128"
target triple = "x86_64-pc-linux-gnu"

%class.outputStream = type { ptr, i32, i8, i32, i64, %class.TimeStamp, ptr, i64 }
%class.TimeStamp = type { i64 }

; Function Attrs: mustprogress nounwind uwtable
define hidden void @_ZN12outputStream42do_vsnprintf_and_write_with_scratch_bufferEPKcP13__va_list_tagb(ptr noundef nonnull align 8 dereferenceable(56) %0, ptr noundef %1, ptr noundef %2, i1 noundef zeroext %3) #1 align 2 {
  %5 = alloca ptr, align 8
  %6 = alloca ptr, align 8
  %7 = alloca ptr, align 8
  %8 = alloca i8, align 1
  %9 = alloca i64, align 8
  %10 = alloca ptr, align 8
  store ptr %0, ptr %5, align 8
  store ptr %1, ptr %6, align 8
  store ptr %2, ptr %7, align 8
  %11 = zext i1 %3 to i8
  store i8 %11, ptr %8, align 1
  %12 = load ptr, ptr %5, align 8
  %13 = getelementptr inbounds %class.outputStream, ptr %12, i32 0, i32 6
  %14 = load ptr, ptr %13, align 8
  %15 = getelementptr inbounds %class.outputStream, ptr %12, i32 0, i32 7
  %16 = load i64, ptr %15, align 8
  %17 = load ptr, ptr %6, align 8
  %18 = load ptr, ptr %7, align 8
  %19 = load i8, ptr %8, align 1
  %20 = trunc i8 %19 to i1
  %21 = call noundef ptr @_ZN12outputStream12do_vsnprintfEPcmPKcP13__va_list_tagbRm(ptr noundef %14, i64 noundef %16, ptr noundef %17, ptr noundef %18, i1 noundef zeroext %20, ptr noundef nonnull align 8 dereferenceable(8) %9)
  store ptr %21, ptr %10, align 8
  %22 = load ptr, ptr %10, align 8
  %23 = load i64, ptr %9, align 8
  %24 = load ptr, ptr %12, align 8
  %25 = getelementptr inbounds ptr, ptr %24, i64 1
  %26 = load ptr, ptr %25, align 8
  call void %26(ptr noundef nonnull align 8 dereferenceable(56) %12, ptr noundef %22, i64 noundef %23)
  ret void
}