; Function Attrs: mustprogress nounwind uwtable
define hidden void @_ZN12outputStream42do_vsnprintf_and_write_with_scratch_bufferEPKcP13__va_list_tagb(ptr noundef nonnull align 8 dereferenceable(56) %0, ptr noundef %1, ptr noundef %2, i1 noundef zeroext %3) local_unnamed_addr #0 align 2 {
  %5 = alloca i64, align 8
  %6 = getelementptr inbounds i8, ptr %0, i64 40
  %7 = load ptr, ptr %6, align 8
  %8 = getelementptr inbounds i8, ptr %0, i64 48
  %9 = load i64, ptr %8, align 8
  %10 = call noundef ptr @_ZN12outputStream12do_vsnprintfEPcmPKcP13__va_list_tagbRm(ptr noundef %7, i64 noundef %9, ptr noundef %1, ptr noundef %2, i1 noundef zeroext %3, ptr noundef nonnull align 8 dereferenceable(8) %5)
  %11 = load i64, ptr %5, align 8
  %12 = load ptr, ptr %0, align 8
  %13 = getelementptr inbounds i8, ptr %12, i64 8
  %14 = load ptr, ptr %13, align 8
  tail call void %14(ptr noundef nonnull align 8 dereferenceable(56) %0, ptr noundef %10, i64 noundef %11) #21
  ret void
}